
Thermostat_I2C_NOHAL-Nucleo-L476RG.elf:     file format elf32-littlearm

Sections:
Idx Name          Size      VMA       LMA       File off  Algn
  0 .isr_vector   0000018c  08000000  08000000  00001000  2**0
                  CONTENTS, ALLOC, LOAD, READONLY, DATA
  1 .text         000006a4  0800018c  0800018c  0000118c  2**2
                  CONTENTS, ALLOC, LOAD, READONLY, CODE
  2 .rodata       00000030  08000830  08000830  00001830  2**2
                  CONTENTS, ALLOC, LOAD, READONLY, DATA
  3 .ARM.extab    00000000  08000860  08000860  00001868  2**0
                  CONTENTS, READONLY
  4 .ARM          00000000  08000860  08000860  00001868  2**0
                  CONTENTS, READONLY
  5 .preinit_array 00000000  08000860  08000868  00001868  2**0
                  CONTENTS, ALLOC, LOAD, DATA
  6 .init_array   00000004  08000860  08000860  00001860  2**2
                  CONTENTS, ALLOC, LOAD, READONLY, DATA
  7 .fini_array   00000004  08000864  08000864  00001864  2**2
                  CONTENTS, ALLOC, LOAD, READONLY, DATA
  8 .data         00000000  20000000  20000000  00001868  2**0
                  CONTENTS, ALLOC, LOAD, DATA
  9 .sram2        00000000  10000000  10000000  00001868  2**0
                  CONTENTS
 10 .bss          0000001c  20000000  20000000  00002000  2**2
                  ALLOC
 11 ._user_heap_stack 00000604  2000001c  2000001c  00002000  2**0
                  ALLOC
 12 .ARM.attributes 00000030  00000000  00000000  00001868  2**0
                  CONTENTS, READONLY
 13 .debug_info   00001592  00000000  00000000  00001898  2**0
                  CONTENTS, READONLY, DEBUGGING, OCTETS
 14 .debug_abbrev 0000059e  00000000  00000000  00002e2a  2**0
                  CONTENTS, READONLY, DEBUGGING, OCTETS
 15 .debug_aranges 00000160  00000000  00000000  000033c8  2**3
                  CONTENTS, READONLY, DEBUGGING, OCTETS
 16 .debug_rnglists 000000e7  00000000  00000000  00003528  2**0
                  CONTENTS, READONLY, DEBUGGING, OCTETS
 17 .debug_macro  0001c911  00000000  00000000  0000360f  2**0
                  CONTENTS, READONLY, DEBUGGING, OCTETS
 18 .debug_line   00002381  00000000  00000000  0001ff20  2**0
                  CONTENTS, READONLY, DEBUGGING, OCTETS
 19 .debug_str    0009ed9a  00000000  00000000  000222a1  2**0
                  CONTENTS, READONLY, DEBUGGING, OCTETS
 20 .comment      00000043  00000000  00000000  000c103b  2**0
                  CONTENTS, READONLY
 21 .debug_frame  00000344  00000000  00000000  000c1080  2**2
                  CONTENTS, READONLY, DEBUGGING, OCTETS
 22 .debug_line_str 00000074  00000000  00000000  000c13c4  2**0
                  CONTENTS, READONLY, DEBUGGING, OCTETS

Disassembly of section .text:

0800018c <__do_global_dtors_aux>:
 800018c:	b510      	push	{r4, lr}
 800018e:	4c05      	ldr	r4, [pc, #20]	@ (80001a4 <__do_global_dtors_aux+0x18>)
 8000190:	7823      	ldrb	r3, [r4, #0]
 8000192:	b933      	cbnz	r3, 80001a2 <__do_global_dtors_aux+0x16>
 8000194:	4b04      	ldr	r3, [pc, #16]	@ (80001a8 <__do_global_dtors_aux+0x1c>)
 8000196:	b113      	cbz	r3, 800019e <__do_global_dtors_aux+0x12>
 8000198:	4804      	ldr	r0, [pc, #16]	@ (80001ac <__do_global_dtors_aux+0x20>)
 800019a:	f3af 8000 	nop.w
 800019e:	2301      	movs	r3, #1
 80001a0:	7023      	strb	r3, [r4, #0]
 80001a2:	bd10      	pop	{r4, pc}
 80001a4:	20000000 	.word	0x20000000
 80001a8:	00000000 	.word	0x00000000
 80001ac:	08000818 	.word	0x08000818

080001b0 <frame_dummy>:
 80001b0:	b508      	push	{r3, lr}
 80001b2:	4b03      	ldr	r3, [pc, #12]	@ (80001c0 <frame_dummy+0x10>)
 80001b4:	b11b      	cbz	r3, 80001be <frame_dummy+0xe>
 80001b6:	4903      	ldr	r1, [pc, #12]	@ (80001c4 <frame_dummy+0x14>)
 80001b8:	4803      	ldr	r0, [pc, #12]	@ (80001c8 <frame_dummy+0x18>)
 80001ba:	f3af 8000 	nop.w
 80001be:	bd08      	pop	{r3, pc}
 80001c0:	00000000 	.word	0x00000000
 80001c4:	20000004 	.word	0x20000004
 80001c8:	08000818 	.word	0x08000818

080001cc <TIM6Config>:
#include "Delay.h"
// Modified by Sam Gay on 7/9/26: include file to STM32L476 clock config
#include "clock_config.h"

void TIM6Config (void)
{
 80001cc:	b480      	push	{r7}
 80001ce:	af00      	add	r7, sp, #0
	3. Enable the Timer, and wait for the update Flag to set
	************************************************/

// 1. Enable Timer clock
	// --- Modified by Sam Gay on 7/9/26: edited to be usable with an STM32L476RG ---
	RCC->APB1ENR1 |= (1 << 4); // RCC->APB1ENR |= (1 << 4);  // Enable the timer6 clock
 80001d0:	4b0f      	ldr	r3, [pc, #60]	@ (8000210 <TIM6Config+0x44>)
 80001d2:	6d9b      	ldr	r3, [r3, #88]	@ 0x58
 80001d4:	4a0e      	ldr	r2, [pc, #56]	@ (8000210 <TIM6Config+0x44>)
 80001d6:	f043 0310 	orr.w	r3, r3, #16
 80001da:	6593      	str	r3, [r2, #88]	@ 0x58

// 2. Set the prescalar and the ARR
	TIM6->PSC = 90-1;  // 90MHz/90 = 1 MHz ~~ 1 uS delay
 80001dc:	4b0d      	ldr	r3, [pc, #52]	@ (8000214 <TIM6Config+0x48>)
 80001de:	2259      	movs	r2, #89	@ 0x59
 80001e0:	629a      	str	r2, [r3, #40]	@ 0x28
	TIM6->ARR = 0xffff;  // MAX ARR value
 80001e2:	4b0c      	ldr	r3, [pc, #48]	@ (8000214 <TIM6Config+0x48>)
 80001e4:	f64f 72ff 	movw	r2, #65535	@ 0xffff
 80001e8:	62da      	str	r2, [r3, #44]	@ 0x2c

// 3. Enable the Timer, and wait for the update Flag to set
	TIM6->CR1 |= (1 << 0); // Enable the Counter
 80001ea:	4b0a      	ldr	r3, [pc, #40]	@ (8000214 <TIM6Config+0x48>)
 80001ec:	681b      	ldr	r3, [r3, #0]
 80001ee:	4a09      	ldr	r2, [pc, #36]	@ (8000214 <TIM6Config+0x48>)
 80001f0:	f043 0301 	orr.w	r3, r3, #1
 80001f4:	6013      	str	r3, [r2, #0]
	while (!(TIM6->SR & (1 << 0)));  // UIF: Update interrupt flag..  This bit is set by hardware when the registers are updated
 80001f6:	bf00      	nop
 80001f8:	4b06      	ldr	r3, [pc, #24]	@ (8000214 <TIM6Config+0x48>)
 80001fa:	691b      	ldr	r3, [r3, #16]
 80001fc:	f003 0301 	and.w	r3, r3, #1
 8000200:	2b00      	cmp	r3, #0
 8000202:	d0f9      	beq.n	80001f8 <TIM6Config+0x2c>
}
 8000204:	bf00      	nop
 8000206:	bf00      	nop
 8000208:	46bd      	mov	sp, r7
 800020a:	f85d 7b04 	ldr.w	r7, [sp], #4
 800020e:	4770      	bx	lr
 8000210:	40021000 	.word	0x40021000
 8000214:	40001000 	.word	0x40001000

08000218 <Delay_us>:

void Delay_us (uint16_t us)
{
 8000218:	b480      	push	{r7}
 800021a:	b083      	sub	sp, #12
 800021c:	af00      	add	r7, sp, #0
 800021e:	4603      	mov	r3, r0
 8000220:	80fb      	strh	r3, [r7, #6]
	/************** STEPS TO FOLLOW *****************
	1. RESET the Counter
	2. Wait for the Counter to reach the entered value. As each count will take 1 us,
		 the total waiting time will be the required us delay
	************************************************/
	TIM6->CNT = 0;
 8000222:	4b08      	ldr	r3, [pc, #32]	@ (8000244 <Delay_us+0x2c>)
 8000224:	2200      	movs	r2, #0
 8000226:	625a      	str	r2, [r3, #36]	@ 0x24
	while (TIM6->CNT < us);
 8000228:	bf00      	nop
 800022a:	4b06      	ldr	r3, [pc, #24]	@ (8000244 <Delay_us+0x2c>)
 800022c:	6a5a      	ldr	r2, [r3, #36]	@ 0x24
 800022e:	88fb      	ldrh	r3, [r7, #6]
 8000230:	429a      	cmp	r2, r3
 8000232:	d3fa      	bcc.n	800022a <Delay_us+0x12>
}
 8000234:	bf00      	nop
 8000236:	bf00      	nop
 8000238:	370c      	adds	r7, #12
 800023a:	46bd      	mov	sp, r7
 800023c:	f85d 7b04 	ldr.w	r7, [sp], #4
 8000240:	4770      	bx	lr
 8000242:	bf00      	nop
 8000244:	40001000 	.word	0x40001000

08000248 <Delay_ms>:

void Delay_ms (uint16_t ms)
{
 8000248:	b580      	push	{r7, lr}
 800024a:	b084      	sub	sp, #16
 800024c:	af00      	add	r7, sp, #0
 800024e:	4603      	mov	r3, r0
 8000250:	80fb      	strh	r3, [r7, #6]
	for (uint16_t i = 0; i < ms; i++)
 8000252:	2300      	movs	r3, #0
 8000254:	81fb      	strh	r3, [r7, #14]
 8000256:	e006      	b.n	8000266 <Delay_ms+0x1e>
	{
		Delay_us (1000); // delay of 1 ms
 8000258:	f44f 707a 	mov.w	r0, #1000	@ 0x3e8
 800025c:	f7ff ffdc 	bl	8000218 <Delay_us>
	for (uint16_t i = 0; i < ms; i++)
 8000260:	89fb      	ldrh	r3, [r7, #14]
 8000262:	3301      	adds	r3, #1
 8000264:	81fb      	strh	r3, [r7, #14]
 8000266:	89fa      	ldrh	r2, [r7, #14]
 8000268:	88fb      	ldrh	r3, [r7, #6]
 800026a:	429a      	cmp	r2, r3
 800026c:	d3f4      	bcc.n	8000258 <Delay_ms+0x10>
	}
}
 800026e:	bf00      	nop
 8000270:	bf00      	nop
 8000272:	3710      	adds	r7, #16
 8000274:	46bd      	mov	sp, r7
 8000276:	bd80      	pop	{r7, pc}

08000278 <clock_config>:
 * APB2 prescaler = 2
 */


void clock_config(void)
{
 8000278:	b480      	push	{r7}
 800027a:	af00      	add	r7, sp, #0
	// Enable HSI16 clock
	RCC->CR |= RCC_CR_HSION;
 800027c:	4b29      	ldr	r3, [pc, #164]	@ (8000324 <clock_config+0xac>)
 800027e:	681b      	ldr	r3, [r3, #0]
 8000280:	4a28      	ldr	r2, [pc, #160]	@ (8000324 <clock_config+0xac>)
 8000282:	f443 7380 	orr.w	r3, r3, #256	@ 0x100
 8000286:	6013      	str	r3, [r2, #0]
	while (!(RCC->CR & RCC_CR_HSIRDY));
 8000288:	bf00      	nop
 800028a:	4b26      	ldr	r3, [pc, #152]	@ (8000324 <clock_config+0xac>)
 800028c:	681b      	ldr	r3, [r3, #0]
 800028e:	f403 6380 	and.w	r3, r3, #1024	@ 0x400
 8000292:	2b00      	cmp	r3, #0
 8000294:	d0f9      	beq.n	800028a <clock_config+0x12>

	// Clock power
	RCC->APB1ENR1 |= RCC_APB1ENR1_PWREN;
 8000296:	4b23      	ldr	r3, [pc, #140]	@ (8000324 <clock_config+0xac>)
 8000298:	6d9b      	ldr	r3, [r3, #88]	@ 0x58
 800029a:	4a22      	ldr	r2, [pc, #136]	@ (8000324 <clock_config+0xac>)
 800029c:	f043 5380 	orr.w	r3, r3, #268435456	@ 0x10000000
 80002a0:	6593      	str	r3, [r2, #88]	@ 0x58
	PWR->CR1 |= PWR_CR1_VOS; // Range 1
 80002a2:	4b21      	ldr	r3, [pc, #132]	@ (8000328 <clock_config+0xb0>)
 80002a4:	681b      	ldr	r3, [r3, #0]
 80002a6:	4a20      	ldr	r2, [pc, #128]	@ (8000328 <clock_config+0xb0>)
 80002a8:	f443 63c0 	orr.w	r3, r3, #1536	@ 0x600
 80002ac:	6013      	str	r3, [r2, #0]

	// Flash memory
	FLASH->ACR = FLASH_ACR_ICEN | FLASH_ACR_DCEN | FLASH_ACR_PRFTEN; // instr. cache | data cache | prefetch
 80002ae:	4b1f      	ldr	r3, [pc, #124]	@ (800032c <clock_config+0xb4>)
 80002b0:	f44f 62e0 	mov.w	r2, #1792	@ 0x700
 80002b4:	601a      	str	r2, [r3, #0]
	FLASH->ACR = FLASH_ACR_LATENCY_4WS; // 4 wait states for Range 1 (PWR) and <= 80 MHz HCLK, pg 101
 80002b6:	4b1d      	ldr	r3, [pc, #116]	@ (800032c <clock_config+0xb4>)
 80002b8:	2204      	movs	r2, #4
 80002ba:	601a      	str	r2, [r3, #0]
	// PLL (Phase-Locked Loop clock control system)
	//	Multiplies clock frequency to enable additional peripherals that require higher frequencies than the clock can support
	// 	PLL/M = 1 -- regulate input clock (HSI) speed by dividing by this value. PLL must be between 4MHz and 16MHz (ex.: 32MHz (clock) / 4 (PLLM) = 8MHz)
	// 	PLL*N = 12 -- multiply clock (HSI) speed
	// 	PLL/R = 6, represented as 2 -- (HSI / M) * N / R -> PLLCLK
	RCC->PLLCFGR = (12 << 8) | (2 << 25) | (RCC_PLLCFGR_PLLREN) | (RCC_PLLCFGR_PLLSRC_HSI); // PLL*N | PLL/R | PLLCLK EN | PLLSRC HSI
 80002bc:	4b19      	ldr	r3, [pc, #100]	@ (8000324 <clock_config+0xac>)
 80002be:	4a1c      	ldr	r2, [pc, #112]	@ (8000330 <clock_config+0xb8>)
 80002c0:	60da      	str	r2, [r3, #12]
	RCC->CR |= RCC_CR_PLLON;
 80002c2:	4b18      	ldr	r3, [pc, #96]	@ (8000324 <clock_config+0xac>)
 80002c4:	681b      	ldr	r3, [r3, #0]
 80002c6:	4a17      	ldr	r2, [pc, #92]	@ (8000324 <clock_config+0xac>)
 80002c8:	f043 7380 	orr.w	r3, r3, #16777216	@ 0x1000000
 80002cc:	6013      	str	r3, [r2, #0]
	while (!(RCC->CR & RCC_CR_PLLRDY));
 80002ce:	bf00      	nop
 80002d0:	4b14      	ldr	r3, [pc, #80]	@ (8000324 <clock_config+0xac>)
 80002d2:	681b      	ldr	r3, [r3, #0]
 80002d4:	f003 7300 	and.w	r3, r3, #33554432	@ 0x2000000
 80002d8:	2b00      	cmp	r3, #0
 80002da:	d0f9      	beq.n	80002d0 <clock_config+0x58>

	// Pre-scalers
	RCC->CFGR |= RCC_CFGR_HPRE_DIV1;  // AHB  prescaler -- SYSCLOCK / 1 -> HCLK
 80002dc:	4b11      	ldr	r3, [pc, #68]	@ (8000324 <clock_config+0xac>)
 80002de:	4a11      	ldr	r2, [pc, #68]	@ (8000324 <clock_config+0xac>)
 80002e0:	689b      	ldr	r3, [r3, #8]
 80002e2:	6093      	str	r3, [r2, #8]
	RCC->CFGR |= RCC_CFGR_PPRE1_DIV4; // APB1 prescaler -- HCLK     / 4 -> PCLK1
 80002e4:	4b0f      	ldr	r3, [pc, #60]	@ (8000324 <clock_config+0xac>)
 80002e6:	689b      	ldr	r3, [r3, #8]
 80002e8:	4a0e      	ldr	r2, [pc, #56]	@ (8000324 <clock_config+0xac>)
 80002ea:	f443 63a0 	orr.w	r3, r3, #1280	@ 0x500
 80002ee:	6093      	str	r3, [r2, #8]
	RCC->CFGR |= RCC_CFGR_PPRE2_DIV2; // APB2 prescaler -- HCLK     / 2 -> PCLK2
 80002f0:	4b0c      	ldr	r3, [pc, #48]	@ (8000324 <clock_config+0xac>)
 80002f2:	689b      	ldr	r3, [r3, #8]
 80002f4:	4a0b      	ldr	r2, [pc, #44]	@ (8000324 <clock_config+0xac>)
 80002f6:	f443 5300 	orr.w	r3, r3, #8192	@ 0x2000
 80002fa:	6093      	str	r3, [r2, #8]

	// Clock source
	RCC->CFGR |= RCC_CFGR_SW_PLL; // sets PLL as system clock
 80002fc:	4b09      	ldr	r3, [pc, #36]	@ (8000324 <clock_config+0xac>)
 80002fe:	689b      	ldr	r3, [r3, #8]
 8000300:	4a08      	ldr	r2, [pc, #32]	@ (8000324 <clock_config+0xac>)
 8000302:	f043 0303 	orr.w	r3, r3, #3
 8000306:	6093      	str	r3, [r2, #8]
	while ((RCC->CFGR & RCC_CFGR_SWS) != RCC_CFGR_SWS_PLL);
 8000308:	bf00      	nop
 800030a:	4b06      	ldr	r3, [pc, #24]	@ (8000324 <clock_config+0xac>)
 800030c:	689b      	ldr	r3, [r3, #8]
 800030e:	f003 030c 	and.w	r3, r3, #12
 8000312:	2b0c      	cmp	r3, #12
 8000314:	d1f9      	bne.n	800030a <clock_config+0x92>
}
 8000316:	bf00      	nop
 8000318:	bf00      	nop
 800031a:	46bd      	mov	sp, r7
 800031c:	f85d 7b04 	ldr.w	r7, [sp], #4
 8000320:	4770      	bx	lr
 8000322:	bf00      	nop
 8000324:	40021000 	.word	0x40021000
 8000328:	40007000 	.word	0x40007000
 800032c:	40022000 	.word	0x40022000
 8000330:	05000c02 	.word	0x05000c02

08000334 <LCD_Write>:
// Modified by Sam Gay on 7/9/26: address of 1602LCD
#define SLAVE_ADDRESS_LCD 0x27

// Modified by Sam Gay on 7/9/26: To use STM32L476RG I2C config
void LCD_Write (uint8_t Address, uint8_t *Data, int size)
{
 8000334:	b580      	push	{r7, lr}
 8000336:	b086      	sub	sp, #24
 8000338:	af00      	add	r7, sp, #0
 800033a:	4603      	mov	r3, r0
 800033c:	60b9      	str	r1, [r7, #8]
 800033e:	607a      	str	r2, [r7, #4]
 8000340:	73fb      	strb	r3, [r7, #15]
	i2c_address(Address);
 8000342:	7bfb      	ldrb	r3, [r7, #15]
 8000344:	4618      	mov	r0, r3
 8000346:	f000 f945 	bl	80005d4 <i2c_address>
	i2c_start();
 800034a:	f000 f915 	bl	8000578 <i2c_start>

	for (int i = 0; i < size; i++)
 800034e:	2300      	movs	r3, #0
 8000350:	617b      	str	r3, [r7, #20]
 8000352:	e009      	b.n	8000368 <LCD_Write+0x34>
	{
		i2c_write(*Data++);
 8000354:	68bb      	ldr	r3, [r7, #8]
 8000356:	1c5a      	adds	r2, r3, #1
 8000358:	60ba      	str	r2, [r7, #8]
 800035a:	781b      	ldrb	r3, [r3, #0]
 800035c:	4618      	mov	r0, r3
 800035e:	f000 f963 	bl	8000628 <i2c_write>
	for (int i = 0; i < size; i++)
 8000362:	697b      	ldr	r3, [r7, #20]
 8000364:	3301      	adds	r3, #1
 8000366:	617b      	str	r3, [r7, #20]
 8000368:	697a      	ldr	r2, [r7, #20]
 800036a:	687b      	ldr	r3, [r7, #4]
 800036c:	429a      	cmp	r2, r3
 800036e:	dbf1      	blt.n	8000354 <LCD_Write+0x20>
	}

	i2c_stop();
 8000370:	f000 f912 	bl	8000598 <i2c_stop>
}
 8000374:	bf00      	nop
 8000376:	3718      	adds	r7, #24
 8000378:	46bd      	mov	sp, r7
 800037a:	bd80      	pop	{r7, pc}

0800037c <lcd_send_cmd>:

void lcd_send_cmd (char cmd)
{
 800037c:	b580      	push	{r7, lr}
 800037e:	b084      	sub	sp, #16
 8000380:	af00      	add	r7, sp, #0
 8000382:	4603      	mov	r3, r0
 8000384:	71fb      	strb	r3, [r7, #7]
	char data_u, data_l;
	uint8_t data_t[4];

	// split 8 bit into 4 bit - upper and lower
	// 0xF0 - 1111 0000
	data_u = (cmd & 0xf0); // upper 4 bits
 8000386:	79fb      	ldrb	r3, [r7, #7]
 8000388:	f023 030f 	bic.w	r3, r3, #15
 800038c:	73fb      	strb	r3, [r7, #15]
	data_l = ((cmd << 4) & 0xf0); // lower 4 bits
 800038e:	79fb      	ldrb	r3, [r7, #7]
 8000390:	011b      	lsls	r3, r3, #4
 8000392:	73bb      	strb	r3, [r7, #14]

	//
	data_t[0] = data_u | 0x0C;  //en=1, rs=0
 8000394:	7bfb      	ldrb	r3, [r7, #15]
 8000396:	f043 030c 	orr.w	r3, r3, #12
 800039a:	b2db      	uxtb	r3, r3
 800039c:	723b      	strb	r3, [r7, #8]
	data_t[1] = data_u | 0x08;  //en=0, rs=0
 800039e:	7bfb      	ldrb	r3, [r7, #15]
 80003a0:	f043 0308 	orr.w	r3, r3, #8
 80003a4:	b2db      	uxtb	r3, r3
 80003a6:	727b      	strb	r3, [r7, #9]
	data_t[2] = data_l | 0x0C;  //en=1, rs=0 // 0x0C - 0000 1100
 80003a8:	7bbb      	ldrb	r3, [r7, #14]
 80003aa:	f043 030c 	orr.w	r3, r3, #12
 80003ae:	b2db      	uxtb	r3, r3
 80003b0:	72bb      	strb	r3, [r7, #10]
	data_t[3] = data_l | 0x08;  //en=0, rs=0 // 0x08 - 0000 1000
 80003b2:	7bbb      	ldrb	r3, [r7, #14]
 80003b4:	f043 0308 	orr.w	r3, r3, #8
 80003b8:	b2db      	uxtb	r3, r3
 80003ba:	72fb      	strb	r3, [r7, #11]

	LCD_Write (SLAVE_ADDRESS_LCD, (uint8_t *) data_t, 4);
 80003bc:	f107 0308 	add.w	r3, r7, #8
 80003c0:	2204      	movs	r2, #4
 80003c2:	4619      	mov	r1, r3
 80003c4:	2027      	movs	r0, #39	@ 0x27
 80003c6:	f7ff ffb5 	bl	8000334 <LCD_Write>
}
 80003ca:	bf00      	nop
 80003cc:	3710      	adds	r7, #16
 80003ce:	46bd      	mov	sp, r7
 80003d0:	bd80      	pop	{r7, pc}

080003d2 <lcd_send_data>:

void lcd_send_data (char data)
{
 80003d2:	b580      	push	{r7, lr}
 80003d4:	b084      	sub	sp, #16
 80003d6:	af00      	add	r7, sp, #0
 80003d8:	4603      	mov	r3, r0
 80003da:	71fb      	strb	r3, [r7, #7]
	char data_u, data_l;
	uint8_t data_t[4];
	data_u = (data & 0xf0);
 80003dc:	79fb      	ldrb	r3, [r7, #7]
 80003de:	f023 030f 	bic.w	r3, r3, #15
 80003e2:	73fb      	strb	r3, [r7, #15]
	data_l = ((data << 4) & 0xf0);
 80003e4:	79fb      	ldrb	r3, [r7, #7]
 80003e6:	011b      	lsls	r3, r3, #4
 80003e8:	73bb      	strb	r3, [r7, #14]
	data_t[0] = data_u | 0x0D;  //en=1, rs=1
 80003ea:	7bfb      	ldrb	r3, [r7, #15]
 80003ec:	f043 030d 	orr.w	r3, r3, #13
 80003f0:	b2db      	uxtb	r3, r3
 80003f2:	723b      	strb	r3, [r7, #8]
	data_t[1] = data_u | 0x09;  //en=0, rs=1
 80003f4:	7bfb      	ldrb	r3, [r7, #15]
 80003f6:	f043 0309 	orr.w	r3, r3, #9
 80003fa:	b2db      	uxtb	r3, r3
 80003fc:	727b      	strb	r3, [r7, #9]
	data_t[2] = data_l | 0x0D;  //en=1, rs=1
 80003fe:	7bbb      	ldrb	r3, [r7, #14]
 8000400:	f043 030d 	orr.w	r3, r3, #13
 8000404:	b2db      	uxtb	r3, r3
 8000406:	72bb      	strb	r3, [r7, #10]
	data_t[3] = data_l | 0x09;  //en=0, rs=1
 8000408:	7bbb      	ldrb	r3, [r7, #14]
 800040a:	f043 0309 	orr.w	r3, r3, #9
 800040e:	b2db      	uxtb	r3, r3
 8000410:	72fb      	strb	r3, [r7, #11]
	LCD_Write (SLAVE_ADDRESS_LCD, (uint8_t *) data_t, 4);
 8000412:	f107 0308 	add.w	r3, r7, #8
 8000416:	2204      	movs	r2, #4
 8000418:	4619      	mov	r1, r3
 800041a:	2027      	movs	r0, #39	@ 0x27
 800041c:	f7ff ff8a 	bl	8000334 <LCD_Write>
}
 8000420:	bf00      	nop
 8000422:	3710      	adds	r7, #16
 8000424:	46bd      	mov	sp, r7
 8000426:	bd80      	pop	{r7, pc}

08000428 <lcd_init>:

    lcd_send_cmd (col);
}

void lcd_init (void)
{
 8000428:	b580      	push	{r7, lr}
 800042a:	af00      	add	r7, sp, #0
	// lcd initialization // see pg. 46 of HD44780U
	Delay_ms(50);  // wait for >40ms
 800042c:	2032      	movs	r0, #50	@ 0x32
 800042e:	f7ff ff0b 	bl	8000248 <Delay_ms>
	lcd_send_cmd (0x30); // 0011 0000 --> Init Function Set pt. 1/3
 8000432:	2030      	movs	r0, #48	@ 0x30
 8000434:	f7ff ffa2 	bl	800037c <lcd_send_cmd>
	Delay_ms(5);  // wait for >4.1ms
 8000438:	2005      	movs	r0, #5
 800043a:	f7ff ff05 	bl	8000248 <Delay_ms>
	lcd_send_cmd (0x30); // 0011 0000 --> Init Function Set pt. 2/3
 800043e:	2030      	movs	r0, #48	@ 0x30
 8000440:	f7ff ff9c 	bl	800037c <lcd_send_cmd>
	Delay_us(150);  // wait for >100us
 8000444:	2096      	movs	r0, #150	@ 0x96
 8000446:	f7ff fee7 	bl	8000218 <Delay_us>
	lcd_send_cmd (0x30); // 0011 0000 --> Init Function Set pt. 3/3
 800044a:	2030      	movs	r0, #48	@ 0x30
 800044c:	f7ff ff96 	bl	800037c <lcd_send_cmd>
	Delay_ms(10);
 8000450:	200a      	movs	r0, #10
 8000452:	f7ff fef9 	bl	8000248 <Delay_ms>
	// NOTE: Display Lines (N) and Character Font (F) can't be changed after this line of code.
	lcd_send_cmd (0x20);  // 4bit mode // 0010 0000 --> DL=0 (4 bit mode), N=1 (2 line), F=0 (5x8 dot matrix)
 8000456:	2020      	movs	r0, #32
 8000458:	f7ff ff90 	bl	800037c <lcd_send_cmd>
	Delay_ms(10);
 800045c:	200a      	movs	r0, #10
 800045e:	f7ff fef3 	bl	8000248 <Delay_ms>

  // 4 bit initialization
	lcd_send_cmd (0x28); // Function set  0010 1000 --> DL=0 (4 bit mode), N = 1 (2 line display) F = 0 (5x8 dot matrix)
 8000462:	2028      	movs	r0, #40	@ 0x28
 8000464:	f7ff ff8a 	bl	800037c <lcd_send_cmd>
	Delay_ms(1);
 8000468:	2001      	movs	r0, #1
 800046a:	f7ff feed 	bl	8000248 <Delay_ms>
	lcd_send_cmd (0x08); //Display on/off control --> D=0, C=0, B=0  ---> display off, cursor off, cursor blink off
 800046e:	2008      	movs	r0, #8
 8000470:	f7ff ff84 	bl	800037c <lcd_send_cmd>
	Delay_ms(1);
 8000474:	2001      	movs	r0, #1
 8000476:	f7ff fee7 	bl	8000248 <Delay_ms>
	lcd_send_cmd (0x01);  // clear display
 800047a:	2001      	movs	r0, #1
 800047c:	f7ff ff7e 	bl	800037c <lcd_send_cmd>
	Delay_ms(1);
 8000480:	2001      	movs	r0, #1
 8000482:	f7ff fee1 	bl	8000248 <Delay_ms>
	Delay_ms(1);
 8000486:	2001      	movs	r0, #1
 8000488:	f7ff fede 	bl	8000248 <Delay_ms>
	lcd_send_cmd (0x06); //Entry mode set --> I/D = 1 (increment cursor right) & S = 0 (no shift)
 800048c:	2006      	movs	r0, #6
 800048e:	f7ff ff75 	bl	800037c <lcd_send_cmd>
	Delay_ms(1);
 8000492:	2001      	movs	r0, #1
 8000494:	f7ff fed8 	bl	8000248 <Delay_ms>

	// display on
	lcd_send_cmd (0x0C); //Display on/off control --> D = 1, C=0, B = 0  ---> display on, cursor off, cursor blink off
 8000498:	200c      	movs	r0, #12
 800049a:	f7ff ff6f 	bl	800037c <lcd_send_cmd>
}
 800049e:	bf00      	nop
 80004a0:	bd80      	pop	{r7, pc}

080004a2 <lcd_send_string>:

void lcd_send_string (char *str)
{
 80004a2:	b580      	push	{r7, lr}
 80004a4:	b082      	sub	sp, #8
 80004a6:	af00      	add	r7, sp, #0
 80004a8:	6078      	str	r0, [r7, #4]
	while (*str)
 80004aa:	e006      	b.n	80004ba <lcd_send_string+0x18>
	{
		lcd_send_data (*str++);
 80004ac:	687b      	ldr	r3, [r7, #4]
 80004ae:	1c5a      	adds	r2, r3, #1
 80004b0:	607a      	str	r2, [r7, #4]
 80004b2:	781b      	ldrb	r3, [r3, #0]
 80004b4:	4618      	mov	r0, r3
 80004b6:	f7ff ff8c 	bl	80003d2 <lcd_send_data>
	while (*str)
 80004ba:	687b      	ldr	r3, [r7, #4]
 80004bc:	781b      	ldrb	r3, [r3, #0]
 80004be:	2b00      	cmp	r3, #0
 80004c0:	d1f4      	bne.n	80004ac <lcd_send_string+0xa>
	}
}
 80004c2:	bf00      	nop
 80004c4:	bf00      	nop
 80004c6:	3708      	adds	r7, #8
 80004c8:	46bd      	mov	sp, r7
 80004ca:	bd80      	pop	{r7, pc}

080004cc <i2c_config>:

#include "i2c_main.h"
#include "clock_config.h"

void i2c_config(void)
{
 80004cc:	b480      	push	{r7}
 80004ce:	af00      	add	r7, sp, #0
	// Enable peripheral clocks
	RCC->AHB2ENR  |= RCC_AHB2ENR_GPIOBEN; // GPIOB
 80004d0:	4b26      	ldr	r3, [pc, #152]	@ (800056c <i2c_config+0xa0>)
 80004d2:	6cdb      	ldr	r3, [r3, #76]	@ 0x4c
 80004d4:	4a25      	ldr	r2, [pc, #148]	@ (800056c <i2c_config+0xa0>)
 80004d6:	f043 0302 	orr.w	r3, r3, #2
 80004da:	64d3      	str	r3, [r2, #76]	@ 0x4c
	RCC->APB1ENR1 |= RCC_APB1ENR1_I2C1EN; // I2C1
 80004dc:	4b23      	ldr	r3, [pc, #140]	@ (800056c <i2c_config+0xa0>)
 80004de:	6d9b      	ldr	r3, [r3, #88]	@ 0x58
 80004e0:	4a22      	ldr	r2, [pc, #136]	@ (800056c <i2c_config+0xa0>)
 80004e2:	f443 1300 	orr.w	r3, r3, #2097152	@ 0x200000
 80004e6:	6593      	str	r3, [r2, #88]	@ 0x58


	// GPIOB config of pins PB8 and PB9
	//	MODER, OSPEEDR, PUPDR: PB8 -> bits 16 and 17; PB9 -> bits 18 and 19
	GPIOB->MODER   &= ~(3 << 16) & ~(3 << 18); // clear MODER bits
 80004e8:	4b21      	ldr	r3, [pc, #132]	@ (8000570 <i2c_config+0xa4>)
 80004ea:	681b      	ldr	r3, [r3, #0]
 80004ec:	4a20      	ldr	r2, [pc, #128]	@ (8000570 <i2c_config+0xa4>)
 80004ee:	f423 2370 	bic.w	r3, r3, #983040	@ 0xf0000
 80004f2:	6013      	str	r3, [r2, #0]
	GPIOB->MODER   |=  (2 << 16) |  (2 << 18);  // Set pins PB8 and PB9 to Alternate Function
 80004f4:	4b1e      	ldr	r3, [pc, #120]	@ (8000570 <i2c_config+0xa4>)
 80004f6:	681b      	ldr	r3, [r3, #0]
 80004f8:	4a1d      	ldr	r2, [pc, #116]	@ (8000570 <i2c_config+0xa4>)
 80004fa:	f443 2320 	orr.w	r3, r3, #655360	@ 0xa0000
 80004fe:	6013      	str	r3, [r2, #0]
	GPIOB->OTYPER  |=  (1 << 8)  |  (1 << 9);  // Output type -> open-drain
 8000500:	4b1b      	ldr	r3, [pc, #108]	@ (8000570 <i2c_config+0xa4>)
 8000502:	685b      	ldr	r3, [r3, #4]
 8000504:	4a1a      	ldr	r2, [pc, #104]	@ (8000570 <i2c_config+0xa4>)
 8000506:	f443 7340 	orr.w	r3, r3, #768	@ 0x300
 800050a:	6053      	str	r3, [r2, #4]
	GPIOB->OSPEEDR |=  (1 << 16) |  (1 << 18);  // Medium speed
 800050c:	4b18      	ldr	r3, [pc, #96]	@ (8000570 <i2c_config+0xa4>)
 800050e:	689b      	ldr	r3, [r3, #8]
 8000510:	4a17      	ldr	r2, [pc, #92]	@ (8000570 <i2c_config+0xa4>)
 8000512:	f443 23a0 	orr.w	r3, r3, #327680	@ 0x50000
 8000516:	6093      	str	r3, [r2, #8]
	GPIOB->PUPDR   |=  (1 << 16) |  (1 << 18);  // Pull-up
 8000518:	4b15      	ldr	r3, [pc, #84]	@ (8000570 <i2c_config+0xa4>)
 800051a:	68db      	ldr	r3, [r3, #12]
 800051c:	4a14      	ldr	r2, [pc, #80]	@ (8000570 <i2c_config+0xa4>)
 800051e:	f443 23a0 	orr.w	r3, r3, #327680	@ 0x50000
 8000522:	60d3      	str	r3, [r2, #12]
	// AFR[1] == AFRH; PB8 -> bits 0 through 3; PB9 -> bits 4 through 7
	GPIOB->AFR[1]  |=  (4 << 0)  |  (4 << 4);  // Alternate Function AF4 (See datasheet; I2C1 column, PB8 and PB9 rows; PB8 -> SCL, PB9 -> SDA)
 8000524:	4b12      	ldr	r3, [pc, #72]	@ (8000570 <i2c_config+0xa4>)
 8000526:	6a5b      	ldr	r3, [r3, #36]	@ 0x24
 8000528:	4a11      	ldr	r2, [pc, #68]	@ (8000570 <i2c_config+0xa4>)
 800052a:	f043 0344 	orr.w	r3, r3, #68	@ 0x44
 800052e:	6253      	str	r3, [r2, #36]	@ 0x24


	// I2C config
	I2C1->CR1 &= ~I2C_CR1_PE; // Disable/reset I2C peripheral
 8000530:	4b10      	ldr	r3, [pc, #64]	@ (8000574 <i2c_config+0xa8>)
 8000532:	681b      	ldr	r3, [r3, #0]
 8000534:	4a0f      	ldr	r2, [pc, #60]	@ (8000574 <i2c_config+0xa8>)
 8000536:	f023 0301 	bic.w	r3, r3, #1
 800053a:	6013      	str	r3, [r2, #0]

	// Peripheral timings
	//	reference sheet pg. 1290, Table 240, Standard-mode (Sm), 100 kHz
	I2C1->TIMINGR = (0x1 << 28); // PRESC
 800053c:	4b0d      	ldr	r3, [pc, #52]	@ (8000574 <i2c_config+0xa8>)
 800053e:	f04f 5280 	mov.w	r2, #268435456	@ 0x10000000
 8000542:	611a      	str	r2, [r3, #16]
	I2C1->TIMINGR = (0xF << 8) | (0x13 << 0); // SCLH | SCLL
 8000544:	4b0b      	ldr	r3, [pc, #44]	@ (8000574 <i2c_config+0xa8>)
 8000546:	f640 7213 	movw	r2, #3859	@ 0xf13
 800054a:	611a      	str	r2, [r3, #16]
	I2C1->TIMINGR = (0x4 << 20) | (0x2 << 16); // SCLDEL | SDADEL
 800054c:	4b09      	ldr	r3, [pc, #36]	@ (8000574 <i2c_config+0xa8>)
 800054e:	f44f 0284 	mov.w	r2, #4325376	@ 0x420000
 8000552:	611a      	str	r2, [r3, #16]

	I2C1->CR1 |= (1 << 0);  // Enable I2C peripheral
 8000554:	4b07      	ldr	r3, [pc, #28]	@ (8000574 <i2c_config+0xa8>)
 8000556:	681b      	ldr	r3, [r3, #0]
 8000558:	4a06      	ldr	r2, [pc, #24]	@ (8000574 <i2c_config+0xa8>)
 800055a:	f043 0301 	orr.w	r3, r3, #1
 800055e:	6013      	str	r3, [r2, #0]
}
 8000560:	bf00      	nop
 8000562:	46bd      	mov	sp, r7
 8000564:	f85d 7b04 	ldr.w	r7, [sp], #4
 8000568:	4770      	bx	lr
 800056a:	bf00      	nop
 800056c:	40021000 	.word	0x40021000
 8000570:	48000400 	.word	0x48000400
 8000574:	40005400 	.word	0x40005400

08000578 <i2c_start>:

void i2c_start(void)
{
 8000578:	b480      	push	{r7}
 800057a:	af00      	add	r7, sp, #0
	I2C1->CR2 |= I2C_CR2_START;
 800057c:	4b05      	ldr	r3, [pc, #20]	@ (8000594 <i2c_start+0x1c>)
 800057e:	685b      	ldr	r3, [r3, #4]
 8000580:	4a04      	ldr	r2, [pc, #16]	@ (8000594 <i2c_start+0x1c>)
 8000582:	f443 5300 	orr.w	r3, r3, #8192	@ 0x2000
 8000586:	6053      	str	r3, [r2, #4]
}
 8000588:	bf00      	nop
 800058a:	46bd      	mov	sp, r7
 800058c:	f85d 7b04 	ldr.w	r7, [sp], #4
 8000590:	4770      	bx	lr
 8000592:	bf00      	nop
 8000594:	40005400 	.word	0x40005400

08000598 <i2c_stop>:

void i2c_stop(void)
{
 8000598:	b480      	push	{r7}
 800059a:	af00      	add	r7, sp, #0
	while(!(I2C1->ISR & I2C_ISR_TC)); // wait for transfer to complete
 800059c:	bf00      	nop
 800059e:	4b0c      	ldr	r3, [pc, #48]	@ (80005d0 <i2c_stop+0x38>)
 80005a0:	699b      	ldr	r3, [r3, #24]
 80005a2:	f003 0340 	and.w	r3, r3, #64	@ 0x40
 80005a6:	2b00      	cmp	r3, #0
 80005a8:	d0f9      	beq.n	800059e <i2c_stop+0x6>
	I2C1->CR2 |= I2C_CR2_STOP;
 80005aa:	4b09      	ldr	r3, [pc, #36]	@ (80005d0 <i2c_stop+0x38>)
 80005ac:	685b      	ldr	r3, [r3, #4]
 80005ae:	4a08      	ldr	r2, [pc, #32]	@ (80005d0 <i2c_stop+0x38>)
 80005b0:	f443 4380 	orr.w	r3, r3, #16384	@ 0x4000
 80005b4:	6053      	str	r3, [r2, #4]
	while(I2C1->ISR & I2C_ISR_BUSY);
 80005b6:	bf00      	nop
 80005b8:	4b05      	ldr	r3, [pc, #20]	@ (80005d0 <i2c_stop+0x38>)
 80005ba:	699b      	ldr	r3, [r3, #24]
 80005bc:	f403 4300 	and.w	r3, r3, #32768	@ 0x8000
 80005c0:	2b00      	cmp	r3, #0
 80005c2:	d1f9      	bne.n	80005b8 <i2c_stop+0x20>
}
 80005c4:	bf00      	nop
 80005c6:	bf00      	nop
 80005c8:	46bd      	mov	sp, r7
 80005ca:	f85d 7b04 	ldr.w	r7, [sp], #4
 80005ce:	4770      	bx	lr
 80005d0:	40005400 	.word	0x40005400

080005d4 <i2c_address>:

void i2c_address(uint8_t addr)
{
 80005d4:	b480      	push	{r7}
 80005d6:	b083      	sub	sp, #12
 80005d8:	af00      	add	r7, sp, #0
 80005da:	4603      	mov	r3, r0
 80005dc:	71fb      	strb	r3, [r7, #7]

	while(I2C1->ISR & I2C_ISR_BUSY);
 80005de:	bf00      	nop
 80005e0:	4b10      	ldr	r3, [pc, #64]	@ (8000624 <i2c_address+0x50>)
 80005e2:	699b      	ldr	r3, [r3, #24]
 80005e4:	f403 4300 	and.w	r3, r3, #32768	@ 0x8000
 80005e8:	2b00      	cmp	r3, #0
 80005ea:	d1f9      	bne.n	80005e0 <i2c_address+0xc>
	I2C1->CR2 &= ~((0x3FF << 0) | (0xFF << 16)); // Clear SADD and NBYTES
 80005ec:	4b0d      	ldr	r3, [pc, #52]	@ (8000624 <i2c_address+0x50>)
 80005ee:	685b      	ldr	r3, [r3, #4]
 80005f0:	4a0c      	ldr	r2, [pc, #48]	@ (8000624 <i2c_address+0x50>)
 80005f2:	f003 23ff 	and.w	r3, r3, #4278255360	@ 0xff00ff00
 80005f6:	f423 7340 	bic.w	r3, r3, #768	@ 0x300
 80005fa:	6053      	str	r3, [r2, #4]
	I2C1->CR2 |= (addr << 1); // address loaded into SADD (shifted 7 bit)
 80005fc:	4b09      	ldr	r3, [pc, #36]	@ (8000624 <i2c_address+0x50>)
 80005fe:	685a      	ldr	r2, [r3, #4]
 8000600:	79fb      	ldrb	r3, [r7, #7]
 8000602:	005b      	lsls	r3, r3, #1
 8000604:	4907      	ldr	r1, [pc, #28]	@ (8000624 <i2c_address+0x50>)
 8000606:	4313      	orrs	r3, r2
 8000608:	604b      	str	r3, [r1, #4]
	I2C1->CR2 |= (4 << 16); // 4 bit operation (LCD) requires 2 sets of bytes (2 sets of 4 bits), total of 4 bytes
 800060a:	4b06      	ldr	r3, [pc, #24]	@ (8000624 <i2c_address+0x50>)
 800060c:	685b      	ldr	r3, [r3, #4]
 800060e:	4a05      	ldr	r2, [pc, #20]	@ (8000624 <i2c_address+0x50>)
 8000610:	f443 2380 	orr.w	r3, r3, #262144	@ 0x40000
 8000614:	6053      	str	r3, [r2, #4]
}
 8000616:	bf00      	nop
 8000618:	370c      	adds	r7, #12
 800061a:	46bd      	mov	sp, r7
 800061c:	f85d 7b04 	ldr.w	r7, [sp], #4
 8000620:	4770      	bx	lr
 8000622:	bf00      	nop
 8000624:	40005400 	.word	0x40005400

08000628 <i2c_write>:

void i2c_write(uint8_t data)
{
 8000628:	b480      	push	{r7}
 800062a:	b083      	sub	sp, #12
 800062c:	af00      	add	r7, sp, #0
 800062e:	4603      	mov	r3, r0
 8000630:	71fb      	strb	r3, [r7, #7]
	while (!(I2C1->ISR & I2C_ISR_TXIS)); // Reference manual, pg. 1283, Figure 407
 8000632:	bf00      	nop
 8000634:	4b07      	ldr	r3, [pc, #28]	@ (8000654 <i2c_write+0x2c>)
 8000636:	699b      	ldr	r3, [r3, #24]
 8000638:	f003 0302 	and.w	r3, r3, #2
 800063c:	2b00      	cmp	r3, #0
 800063e:	d0f9      	beq.n	8000634 <i2c_write+0xc>
	I2C1->TXDR = data;
 8000640:	4a04      	ldr	r2, [pc, #16]	@ (8000654 <i2c_write+0x2c>)
 8000642:	79fb      	ldrb	r3, [r7, #7]
 8000644:	6293      	str	r3, [r2, #40]	@ 0x28
}
 8000646:	bf00      	nop
 8000648:	370c      	adds	r7, #12
 800064a:	46bd      	mov	sp, r7
 800064c:	f85d 7b04 	ldr.w	r7, [sp], #4
 8000650:	4770      	bx	lr
 8000652:	bf00      	nop
 8000654:	40005400 	.word	0x40005400

08000658 <main>:
#include "usart_main.h"
#include "Delay.h"
#include <stm32l476xx.h>

int main()
{
 8000658:	b580      	push	{r7, lr}
 800065a:	b082      	sub	sp, #8
 800065c:	af00      	add	r7, sp, #0
	// Clock
	clock_config();
 800065e:	f7ff fe0b 	bl	8000278 <clock_config>
	TIM6Config();
 8000662:	f7ff fdb3 	bl	80001cc <TIM6Config>

	// TODO: add console logging to attached computer
	usart_config();
 8000666:	f000 f81f 	bl	80006a8 <usart_config>
	usart_write_string("Hello from the Nucleo board\r\n"); // TODO: remove
 800066a:	480d      	ldr	r0, [pc, #52]	@ (80006a0 <main+0x48>)
 800066c:	f000 f870 	bl	8000750 <usart_write_string>

	// I2C
	i2c_config();
 8000670:	f7ff ff2c 	bl	80004cc <i2c_config>

	// LCD
	lcd_init();
 8000674:	f7ff fed8 	bl	8000428 <lcd_init>

	// Temperature
	// TODO

	int count = 0;
 8000678:	2300      	movs	r3, #0
 800067a:	607b      	str	r3, [r7, #4]

	while (1)
	{
		//USART
		usart_write(count++);
 800067c:	687b      	ldr	r3, [r7, #4]
 800067e:	1c5a      	adds	r2, r3, #1
 8000680:	607a      	str	r2, [r7, #4]
 8000682:	b2db      	uxtb	r3, r3
 8000684:	4618      	mov	r0, r3
 8000686:	f000 f84b 	bl	8000720 <usart_write>

		//I2C
		lcd_send_string("hello world!");
 800068a:	4806      	ldr	r0, [pc, #24]	@ (80006a4 <main+0x4c>)
 800068c:	f7ff ff09 	bl	80004a2 <lcd_send_string>
		Delay_ms(100);
 8000690:	2064      	movs	r0, #100	@ 0x64
 8000692:	f7ff fdd9 	bl	8000248 <Delay_ms>
//		lcd_send_string("1");
//		Delay_ms(100);
//		lcd_send_string("2");
//		Delay_ms(100);
//		lcd_send_string("3");
		Delay_ms(100);
 8000696:	2064      	movs	r0, #100	@ 0x64
 8000698:	f7ff fdd6 	bl	8000248 <Delay_ms>
		usart_write(count++);
 800069c:	bf00      	nop
 800069e:	e7ed      	b.n	800067c <main+0x24>
 80006a0:	08000830 	.word	0x08000830
 80006a4:	08000850 	.word	0x08000850

080006a8 <usart_config>:
 */

#include "usart_main.h"

void usart_config(void)
{
 80006a8:	b480      	push	{r7}
 80006aa:	af00      	add	r7, sp, #0
	// Enable peripheral clocks
	RCC->AHB2ENR  |= RCC_AHB2ENR_GPIOAEN;   // GPIOA
 80006ac:	4b1a      	ldr	r3, [pc, #104]	@ (8000718 <usart_config+0x70>)
 80006ae:	6cdb      	ldr	r3, [r3, #76]	@ 0x4c
 80006b0:	4a19      	ldr	r2, [pc, #100]	@ (8000718 <usart_config+0x70>)
 80006b2:	f043 0301 	orr.w	r3, r3, #1
 80006b6:	64d3      	str	r3, [r2, #76]	@ 0x4c
	RCC->APB1ENR1 |= RCC_APB1ENR1_USART2EN; // USART2
 80006b8:	4b17      	ldr	r3, [pc, #92]	@ (8000718 <usart_config+0x70>)
 80006ba:	6d9b      	ldr	r3, [r3, #88]	@ 0x58
 80006bc:	4a16      	ldr	r2, [pc, #88]	@ (8000718 <usart_config+0x70>)
 80006be:	f443 3300 	orr.w	r3, r3, #131072	@ 0x20000
 80006c2:	6593      	str	r3, [r2, #88]	@ 0x58

	// GPIOA config
	GPIOA->MODER &= ~(3 << 4); // clear bits 4 and 5
 80006c4:	f04f 4390 	mov.w	r3, #1207959552	@ 0x48000000
 80006c8:	681b      	ldr	r3, [r3, #0]
 80006ca:	f04f 4290 	mov.w	r2, #1207959552	@ 0x48000000
 80006ce:	f023 0330 	bic.w	r3, r3, #48	@ 0x30
 80006d2:	6013      	str	r3, [r2, #0]
	GPIOA->MODER |= (2 << 4);  // set pin PA2 to alternate function
 80006d4:	f04f 4390 	mov.w	r3, #1207959552	@ 0x48000000
 80006d8:	681b      	ldr	r3, [r3, #0]
 80006da:	f04f 4290 	mov.w	r2, #1207959552	@ 0x48000000
 80006de:	f043 0320 	orr.w	r3, r3, #32
 80006e2:	6013      	str	r3, [r2, #0]
	GPIOA->AFR[0] = (7 << 8); // pin PA2 AF7 (USART2_TX)
 80006e4:	f04f 4390 	mov.w	r3, #1207959552	@ 0x48000000
 80006e8:	f44f 62e0 	mov.w	r2, #1792	@ 0x700
 80006ec:	621a      	str	r2, [r3, #32]
//		Currently running at 19200 Baud on COM6 (using Tera Term VT).
//		fck / USARTDIV = Baud
//		PCLK -> USART fck == 32MHz (32,000,000 Hz)
//		USARTDIV
//	USART2->CR2 |= USART_CR2_OVER8; // over-sampling by 8
	USART2->BRR = 0x341; // 0x01a0;  // 9600 @16MHz    // USART2->BRR = 0x0681; // // 0x0681 == 0d1665 == 0110 1000 0001
 80006ee:	4b0b      	ldr	r3, [pc, #44]	@ (800071c <usart_config+0x74>)
 80006f0:	f240 3241 	movw	r2, #833	@ 0x341
 80006f4:	60da      	str	r2, [r3, #12]

	USART2->CR1 |= USART_CR1_UE; // USART enable
 80006f6:	4b09      	ldr	r3, [pc, #36]	@ (800071c <usart_config+0x74>)
 80006f8:	681b      	ldr	r3, [r3, #0]
 80006fa:	4a08      	ldr	r2, [pc, #32]	@ (800071c <usart_config+0x74>)
 80006fc:	f043 0301 	orr.w	r3, r3, #1
 8000700:	6013      	str	r3, [r2, #0]
	USART2->CR1 |= USART_CR1_TE; // Transmit enable
 8000702:	4b06      	ldr	r3, [pc, #24]	@ (800071c <usart_config+0x74>)
 8000704:	681b      	ldr	r3, [r3, #0]
 8000706:	4a05      	ldr	r2, [pc, #20]	@ (800071c <usart_config+0x74>)
 8000708:	f043 0308 	orr.w	r3, r3, #8
 800070c:	6013      	str	r3, [r2, #0]
}
 800070e:	bf00      	nop
 8000710:	46bd      	mov	sp, r7
 8000712:	f85d 7b04 	ldr.w	r7, [sp], #4
 8000716:	4770      	bx	lr
 8000718:	40021000 	.word	0x40021000
 800071c:	40004400 	.word	0x40004400

08000720 <usart_write>:

void usart_write(char letter)
{
 8000720:	b480      	push	{r7}
 8000722:	b083      	sub	sp, #12
 8000724:	af00      	add	r7, sp, #0
 8000726:	4603      	mov	r3, r0
 8000728:	71fb      	strb	r3, [r7, #7]
	while(!(USART2->ISR & USART_ISR_TXE));
 800072a:	bf00      	nop
 800072c:	4b07      	ldr	r3, [pc, #28]	@ (800074c <usart_write+0x2c>)
 800072e:	69db      	ldr	r3, [r3, #28]
 8000730:	f003 0380 	and.w	r3, r3, #128	@ 0x80
 8000734:	2b00      	cmp	r3, #0
 8000736:	d0f9      	beq.n	800072c <usart_write+0xc>
	USART2->TDR = (letter);
 8000738:	4a04      	ldr	r2, [pc, #16]	@ (800074c <usart_write+0x2c>)
 800073a:	79fb      	ldrb	r3, [r7, #7]
 800073c:	6293      	str	r3, [r2, #40]	@ 0x28
}
 800073e:	bf00      	nop
 8000740:	370c      	adds	r7, #12
 8000742:	46bd      	mov	sp, r7
 8000744:	f85d 7b04 	ldr.w	r7, [sp], #4
 8000748:	4770      	bx	lr
 800074a:	bf00      	nop
 800074c:	40004400 	.word	0x40004400

08000750 <usart_write_string>:

void usart_write_string(char *str)
{
 8000750:	b580      	push	{r7, lr}
 8000752:	b082      	sub	sp, #8
 8000754:	af00      	add	r7, sp, #0
 8000756:	6078      	str	r0, [r7, #4]
	while (*str)
 8000758:	e007      	b.n	800076a <usart_write_string+0x1a>
	{
		usart_write(*str);
 800075a:	687b      	ldr	r3, [r7, #4]
 800075c:	781b      	ldrb	r3, [r3, #0]
 800075e:	4618      	mov	r0, r3
 8000760:	f7ff ffde 	bl	8000720 <usart_write>
		str++;
 8000764:	687b      	ldr	r3, [r7, #4]
 8000766:	3301      	adds	r3, #1
 8000768:	607b      	str	r3, [r7, #4]
	while (*str)
 800076a:	687b      	ldr	r3, [r7, #4]
 800076c:	781b      	ldrb	r3, [r3, #0]
 800076e:	2b00      	cmp	r3, #0
 8000770:	d1f3      	bne.n	800075a <usart_write_string+0xa>
	}
}
 8000772:	bf00      	nop
 8000774:	bf00      	nop
 8000776:	3708      	adds	r7, #8
 8000778:	46bd      	mov	sp, r7
 800077a:	bd80      	pop	{r7, pc}

0800077c <Reset_Handler>:
 800077c:	480d      	ldr	r0, [pc, #52]	@ (80007b4 <LoopForever+0x2>)
 800077e:	4685      	mov	sp, r0
 8000780:	f3af 8000 	nop.w
 8000784:	480c      	ldr	r0, [pc, #48]	@ (80007b8 <LoopForever+0x6>)
 8000786:	490d      	ldr	r1, [pc, #52]	@ (80007bc <LoopForever+0xa>)
 8000788:	4a0d      	ldr	r2, [pc, #52]	@ (80007c0 <LoopForever+0xe>)
 800078a:	2300      	movs	r3, #0
 800078c:	e002      	b.n	8000794 <LoopCopyDataInit>

0800078e <CopyDataInit>:
 800078e:	58d4      	ldr	r4, [r2, r3]
 8000790:	50c4      	str	r4, [r0, r3]
 8000792:	3304      	adds	r3, #4

08000794 <LoopCopyDataInit>:
 8000794:	18c4      	adds	r4, r0, r3
 8000796:	428c      	cmp	r4, r1
 8000798:	d3f9      	bcc.n	800078e <CopyDataInit>
 800079a:	4a0a      	ldr	r2, [pc, #40]	@ (80007c4 <LoopForever+0x12>)
 800079c:	4c0a      	ldr	r4, [pc, #40]	@ (80007c8 <LoopForever+0x16>)
 800079e:	2300      	movs	r3, #0
 80007a0:	e001      	b.n	80007a6 <LoopFillZerobss>

080007a2 <FillZerobss>:
 80007a2:	6013      	str	r3, [r2, #0]
 80007a4:	3204      	adds	r2, #4

080007a6 <LoopFillZerobss>:
 80007a6:	42a2      	cmp	r2, r4
 80007a8:	d3fb      	bcc.n	80007a2 <FillZerobss>
 80007aa:	f000 f811 	bl	80007d0 <__libc_init_array>
 80007ae:	f7ff ff53 	bl	8000658 <main>

080007b2 <LoopForever>:
 80007b2:	e7fe      	b.n	80007b2 <LoopForever>
 80007b4:	20018000 	.word	0x20018000
 80007b8:	20000000 	.word	0x20000000
 80007bc:	20000000 	.word	0x20000000
 80007c0:	08000868 	.word	0x08000868
 80007c4:	20000000 	.word	0x20000000
 80007c8:	2000001c 	.word	0x2000001c

080007cc <ADC1_2_IRQHandler>:
 80007cc:	e7fe      	b.n	80007cc <ADC1_2_IRQHandler>
	...

080007d0 <__libc_init_array>:
 80007d0:	b570      	push	{r4, r5, r6, lr}
 80007d2:	4b0d      	ldr	r3, [pc, #52]	@ (8000808 <__libc_init_array+0x38>)
 80007d4:	4d0d      	ldr	r5, [pc, #52]	@ (800080c <__libc_init_array+0x3c>)
 80007d6:	1b5b      	subs	r3, r3, r5
 80007d8:	109c      	asrs	r4, r3, #2
 80007da:	2600      	movs	r6, #0
 80007dc:	42a6      	cmp	r6, r4
 80007de:	d109      	bne.n	80007f4 <__libc_init_array+0x24>
 80007e0:	f000 f81a 	bl	8000818 <_init>
 80007e4:	4d0a      	ldr	r5, [pc, #40]	@ (8000810 <__libc_init_array+0x40>)
 80007e6:	4b0b      	ldr	r3, [pc, #44]	@ (8000814 <__libc_init_array+0x44>)
 80007e8:	1b5b      	subs	r3, r3, r5
 80007ea:	109c      	asrs	r4, r3, #2
 80007ec:	2600      	movs	r6, #0
 80007ee:	42a6      	cmp	r6, r4
 80007f0:	d105      	bne.n	80007fe <__libc_init_array+0x2e>
 80007f2:	bd70      	pop	{r4, r5, r6, pc}
 80007f4:	f855 3b04 	ldr.w	r3, [r5], #4
 80007f8:	4798      	blx	r3
 80007fa:	3601      	adds	r6, #1
 80007fc:	e7ee      	b.n	80007dc <__libc_init_array+0xc>
 80007fe:	f855 3b04 	ldr.w	r3, [r5], #4
 8000802:	4798      	blx	r3
 8000804:	3601      	adds	r6, #1
 8000806:	e7f2      	b.n	80007ee <__libc_init_array+0x1e>
 8000808:	08000860 	.word	0x08000860
 800080c:	08000860 	.word	0x08000860
 8000810:	08000860 	.word	0x08000860
 8000814:	08000864 	.word	0x08000864

08000818 <_init>:
 8000818:	b5f8      	push	{r3, r4, r5, r6, r7, lr}
 800081a:	bf00      	nop
 800081c:	bcf8      	pop	{r3, r4, r5, r6, r7}
 800081e:	bc08      	pop	{r3}
 8000820:	469e      	mov	lr, r3
 8000822:	4770      	bx	lr

08000824 <_fini>:
 8000824:	b5f8      	push	{r3, r4, r5, r6, r7, lr}
 8000826:	bf00      	nop
 8000828:	bcf8      	pop	{r3, r4, r5, r6, r7}
 800082a:	bc08      	pop	{r3}
 800082c:	469e      	mov	lr, r3
 800082e:	4770      	bx	lr
